; Function Attrs: nounwind uwtable
define internal range(i32 -1, 1) i32 @sigfd_add(ptr noundef %0, i32 noundef %1, i16 noundef signext %2, i16 signext %3, ptr readnone captures(none) %4) #2 {
  %6 = alloca %struct.__sigset_t, align 8
  call void @llvm.lifetime.start.p0(i64 128, ptr nonnull %6) #7
  %7 = getelementptr inbounds nuw i8, ptr %0, i64 40
  %8 = getelementptr inbounds nuw i8, ptr %0, i64 176
  %9 = sext i32 %1 to i64
  %10 = getelementptr inbounds [65 x ptr], ptr %8, i64 0, i64 %9
  %11 = load ptr, ptr %10, align 8
  %.not = icmp eq ptr %11, null
  br i1 %.not, label %18, label %12

12:                                               ; preds = %5
  %.not37 = icmp eq i16 %2, 0
  br i1 %.not37, label %64, label %13

13:                                               ; preds = %12
  %14 = tail call i32 @event_del_nolock_(ptr noundef nonnull %11, i32 noundef 2) #7
  %15 = getelementptr inbounds nuw i8, ptr %11, i64 56
  %16 = load i32, ptr %15, align 8
  %17 = tail call i32 @close(i32 noundef %16) #7
  tail call void @event_mm_free_(ptr noundef nonnull %11) #7
  store ptr null, ptr %10, align 8
  br label %18

18:                                               ; preds = %13, %5
  %19 = tail call i32 @evsig_ensure_saved_(ptr noundef nonnull %7, i32 noundef %1) #7
  %20 = icmp slt i32 %19, 0
  br i1 %20, label %64, label %21

21:                                               ; preds = %18
  %22 = tail call ptr @event_mm_malloc_(i64 noundef 152) #7
  %23 = getelementptr inbounds nuw i8, ptr %0, i64 696
  %24 = load ptr, ptr %23, align 8
  %25 = getelementptr inbounds ptr, ptr %24, i64 %9
  store ptr %22, ptr %25, align 8
  %26 = load ptr, ptr %23, align 8
  %27 = getelementptr inbounds ptr, ptr %26, i64 %9
  %28 = load ptr, ptr %27, align 8
  %29 = icmp eq ptr %28, null
  br i1 %29, label %30, label %31

30:                                               ; preds = %21
  tail call void (ptr, ...) @event_warn(ptr noundef nonnull @.str.2) #7
  br label %64

31:                                               ; preds = %21
  %32 = tail call i32 @sigaction(i32 noundef %1, ptr noundef null, ptr noundef nonnull %28) #7
  %33 = icmp eq i32 %32, -1
  br i1 %33, label %34, label %40

34:                                               ; preds = %31
  tail call void (ptr, ...) @event_warn(ptr noundef nonnull @.str.3) #7
  %35 = load ptr, ptr %23, align 8
  %36 = getelementptr inbounds ptr, ptr %35, i64 %9
  %37 = load ptr, ptr %36, align 8
  tail call void @event_mm_free_(ptr noundef %37) #7
  %38 = load ptr, ptr %23, align 8
  %39 = getelementptr inbounds ptr, ptr %38, i64 %9
  store ptr null, ptr %39, align 8
  br label %64

40:                                               ; preds = %31
  %41 = call i32 @sigemptyset(ptr noundef nonnull %6) #7
  %42 = call i32 @sigaddset(ptr noundef nonnull %6, i32 noundef %1) #7
  %43 = call i32 @sigprocmask(i32 noundef 0, ptr noundef nonnull %6, ptr noundef null) #7
  %.not38 = icmp eq i32 %43, 0
  br i1 %.not38, label %45, label %44

44:                                               ; preds = %40
  call void (ptr, ...) @event_warn(ptr noundef nonnull @.str.4) #7
  br label %64

45:                                               ; preds = %40
  %46 = call i32 @signalfd(i32 noundef -1, ptr noundef nonnull %6, i32 noundef 526336) #7
  %47 = icmp slt i32 %46, 0
  br i1 %47, label %48, label %49

48:                                               ; preds = %45
  call void (ptr, ...) @event_warn(ptr noundef nonnull @.str.5) #7
  br label %62

49:                                               ; preds = %45
  %50 = call ptr @event_new(ptr noundef nonnull %0, i32 noundef %46, i16 noundef signext 18, ptr noundef nonnull @sigfd_cb, ptr noundef nonnull %0) #7
  %.not39 = icmp eq ptr %50, null
  br i1 %.not39, label %60, label %51

51:                                               ; preds = %49
  %52 = getelementptr inbounds nuw i8, ptr %50, i64 16
  %53 = load i16, ptr %52, align 8
  %54 = or i16 %53, 16
  store i16 %54, ptr %52, align 8
  %55 = call i32 @event_priority_set(ptr noundef nonnull %50, i32 noundef 0) #7
  %56 = call i32 @event_add_nolock_(ptr noundef nonnull %50, ptr noundef null, i32 noundef 0) #7
  %57 = icmp slt i32 %56, 0
  br i1 %57, label %59, label %58

58:                                               ; preds = %51
  store ptr %50, ptr %10, align 8
  br label %64

59:                                               ; preds = %51
  call void @event_mm_free_(ptr noundef nonnull %50) #7
  br label %60

60:                                               ; preds = %49, %59
  %61 = call i32 @close(i32 noundef %46) #7
  br label %62

62:                                               ; preds = %60, %48
  %63 = call i32 @sigprocmask(i32 noundef 1, ptr noundef nonnull %6, ptr noundef null) #7
  br label %64

64:                                               ; preds = %18, %12, %62, %58, %44, %34, %30
  %.0 = phi i32 [ -1, %30 ], [ -1, %34 ], [ -1, %44 ], [ -1, %62 ], [ 0, %58 ], [ 0, %12 ], [ -1, %18 ]
  call void @llvm.lifetime.end.p0(i64 128, ptr nonnull %6) #7
  ret i32 %.0
}